; Function Attrs: nounwind sspstrong uwtable
define internal zeroext i1 @pr_manager_helper_is_connected(ptr noundef %p) #0 {
entry:
  %call.i = tail call ptr @object_dynamic_cast_assert(ptr noundef %p, ptr noundef nonnull @.str, ptr noundef nonnull @.str.2, i32 noundef 30, ptr noundef nonnull @__func__.PR_MANAGER_HELPER) #7
  %0 = load atomic i64, ptr @qemu_mutex_lock_func monotonic, align 8
  %1 = inttoptr i64 %0 to ptr
  %lock = getelementptr inbounds nuw i8, ptr %call.i, i64 48
  tail call void %1(ptr noundef nonnull %lock, ptr noundef nonnull @.str.2, i32 noundef 256) #7
  %ioc = getelementptr inbounds nuw i8, ptr %call.i, i64 96
  %2 = load ptr, ptr %ioc, align 8
  %cmp = icmp ne ptr %2, null
  tail call void @qemu_mutex_unlock_impl(ptr noundef nonnull %lock, ptr noundef nonnull @.str.2, i32 noundef 258) #7
  ret i1 %cmp
}